; Function Attrs: nounwind uwtable
define dso_local i32 @lzma_block_header_encode(ptr noundef readonly %0, ptr noundef %1) local_unnamed_addr #0 {
  %3 = alloca i64, align 8
  %4 = tail call i64 @lzma_block_unpadded_size(ptr noundef %0) #5
  %5 = icmp eq i64 %4, 0
  br i1 %5, label %57, label %6

6:                                                ; preds = %2
  %7 = getelementptr inbounds nuw i8, ptr %0, i64 24
  %8 = load i64, ptr %7, align 8, !tbaa !12
  %or.cond = icmp sgt i64 %8, -2
  br i1 %or.cond, label %9, label %57

9:                                                ; preds = %6
  %10 = getelementptr inbounds nuw i8, ptr %0, i64 4
  %11 = load i32, ptr %10, align 4, !tbaa !18
  %12 = add i32 %11, -4
  %13 = zext i32 %12 to i64
  %14 = lshr i32 %12, 2
  %15 = trunc i32 %14 to i8
  store i8 %15, ptr %1, align 1, !tbaa !19
  %16 = getelementptr inbounds nuw i8, ptr %1, i64 1
  store i8 0, ptr %16, align 1, !tbaa !19
  call void @llvm.lifetime.start.p0(i64 8, ptr nonnull %3) #6
  store i64 2, ptr %3, align 8, !tbaa !20
  %17 = getelementptr inbounds nuw i8, ptr %0, i64 16
  %18 = load i64, ptr %17, align 8, !tbaa !11
  %.not = icmp eq i64 %18, -1
  br i1 %.not, label %24, label %19

19:                                               ; preds = %9
  %20 = call i32 @lzma_vli_encode(i64 noundef %18, ptr noundef null, ptr noundef nonnull %1, ptr noundef nonnull %3, i64 noundef %13) #6
  %.not55 = icmp eq i32 %20, 0
  br i1 %.not55, label %21, label %.loopexit

21:                                               ; preds = %19
  %22 = load i8, ptr %16, align 1, !tbaa !19
  %23 = or i8 %22, 64
  store i8 %23, ptr %16, align 1, !tbaa !19
  br label %24

24:                                               ; preds = %21, %9
  %25 = load i64, ptr %7, align 8, !tbaa !12
  %.not56 = icmp eq i64 %25, -1
  br i1 %.not56, label %31, label %26

26:                                               ; preds = %24
  %27 = call i32 @lzma_vli_encode(i64 noundef %25, ptr noundef null, ptr noundef nonnull %1, ptr noundef nonnull %3, i64 noundef %13) #6
  %.not57 = icmp eq i32 %27, 0
  br i1 %.not57, label %28, label %.loopexit

28:                                               ; preds = %26
  %29 = load i8, ptr %16, align 1, !tbaa !19
  %30 = or i8 %29, -128
  store i8 %30, ptr %16, align 1, !tbaa !19
  br label %31

31:                                               ; preds = %28, %24
  %32 = getelementptr inbounds nuw i8, ptr %0, i64 32
  %33 = load ptr, ptr %32, align 8, !tbaa !13
  %34 = icmp eq ptr %33, null
  br i1 %34, label %.loopexit, label %35

35:                                               ; preds = %31
  %36 = load i64, ptr %33, align 8, !tbaa !14
  %37 = icmp eq i64 %36, -1
  br i1 %37, label %.loopexit, label %.preheader

.preheader:                                       ; preds = %35, %43
  %38 = phi ptr [ %44, %43 ], [ %33, %35 ]
  %.045 = phi i64 [ %45, %43 ], [ 0, %35 ]
  %39 = icmp eq i64 %.045, 4
  br i1 %39, label %.loopexit, label %40

40:                                               ; preds = %.preheader
  %41 = getelementptr inbounds nuw %struct.lzma_filter, ptr %38, i64 %.045
  %42 = call i32 @lzma_filter_flags_encode(ptr noundef %41, ptr noundef nonnull %1, ptr noundef nonnull %3, i64 noundef %13) #6
  %.not58 = icmp eq i32 %42, 0
  br i1 %.not58, label %43, label %.loopexit

43:                                               ; preds = %40
  %44 = load ptr, ptr %32, align 8, !tbaa !13
  %45 = add nuw nsw i64 %.045, 1
  %46 = getelementptr inbounds nuw %struct.lzma_filter, ptr %44, i64 %45
  %47 = load i64, ptr %46, align 8, !tbaa !14
  %.not59 = icmp eq i64 %47, -1
  br i1 %.not59, label %48, label %.preheader, !llvm.loop !21

48:                                               ; preds = %43
  %49 = load i8, ptr %16, align 1, !tbaa !19
  %50 = trunc i64 %.045 to i8
  %51 = or i8 %49, %50
  store i8 %51, ptr %16, align 1, !tbaa !19
  %52 = load i64, ptr %3, align 8, !tbaa !20
  %53 = getelementptr inbounds nuw i8, ptr %1, i64 %52
  %54 = sub i64 %13, %52
  call void @llvm.memset.p0.i64(ptr nonnull align 1 %53, i8 0, i64 %54, i1 false)
  %55 = getelementptr inbounds nuw i8, ptr %1, i64 %13
  %56 = call i32 @lzma_crc32(ptr noundef nonnull %1, i64 noundef %13, i32 noundef 0) #5
  store i32 %56, ptr %55, align 1
  br label %.loopexit

.loopexit:                                        ; preds = %40, %.preheader, %48, %31, %35, %19, %26
  %.3 = phi i32 [ %27, %26 ], [ %20, %19 ], [ 11, %35 ], [ 11, %31 ], [ 0, %48 ], [ 11, %.preheader ], [ %42, %40 ]
  call void @llvm.lifetime.end.p0(i64 8, ptr nonnull %3) #6
  br label %57

57:                                               ; preds = %2, %6, %.loopexit
  %.0 = phi i32 [ %.3, %.loopexit ], [ 11, %6 ], [ 11, %2 ]
  ret i32 %.0
}